target datalayout = "e-m:e-p270:32:32-p271:32:32-p272:64:64-i64:64-i128:128-f80:128-n8:16:32:64-S128"
target triple = "x86_64-pc-linux-gnu"

%struct._zval_struct = type { %union._zend_value, %union.anon, %union.anon.2 }
%union._zend_value = type { i64 }
%union.anon = type { i32 }
%union.anon.2 = type { i32 }
%struct._zend_refcounted_h = type { i32, %union.anon.3 }
%union.anon.3 = type { i32 }
%struct._zend_string = type { %struct._zend_refcounted_h, i64, i64, [1 x i8] }

@zend_known_strings = external global ptr, align 8
@zend_ce_exception = global ptr null, align 8

; Function Attrs: nounwind uwtable
define internal ptr @zend_throw_exception_zstr(ptr noundef %0, ptr noundef %1, i64 noundef %2) #0 {
  %4 = alloca i32, align 4
  %5 = alloca ptr, align 8
  %6 = alloca ptr, align 8
  %7 = alloca i64, align 8
  %8 = alloca %struct._zval_struct, align 8
  %9 = alloca %struct._zval_struct, align 8
  %10 = alloca ptr, align 8
  %11 = alloca ptr, align 8
  %12 = alloca ptr, align 8
  store ptr %0, ptr %5, align 8
  store ptr %1, ptr %6, align 8
  store i64 %2, ptr %7, align 8
  %13 = load ptr, ptr %5, align 8
  %14 = icmp ne ptr %13, null
  br i1 %14, label %17, label %15

15:                                               ; preds = %3
  %16 = load ptr, ptr @zend_ce_exception, align 8
  store ptr %16, ptr %5, align 8
  br label %17

17:                                               ; preds = %15, %3
  %18 = load ptr, ptr %5, align 8
  %19 = call i32 @object_init_ex(ptr noundef %8, ptr noundef %18)
  %20 = load ptr, ptr %6, align 8
  %21 = icmp ne ptr %20, null
  br i1 %21, label %22, label %46

22:                                               ; preds = %17
  br label %23

23:                                               ; preds = %22
  store ptr %9, ptr %10, align 8
  %24 = load ptr, ptr %6, align 8
  store ptr %24, ptr %11, align 8
  %25 = load ptr, ptr %11, align 8
  %26 = load ptr, ptr %10, align 8
  %27 = getelementptr inbounds %struct._zval_struct, ptr %26, i32 0, i32 0
  store ptr %25, ptr %27, align 8
  %28 = load ptr, ptr %11, align 8
  %29 = getelementptr inbounds %struct._zend_string, ptr %28, i32 0, i32 0
  %30 = getelementptr inbounds %struct._zend_refcounted_h, ptr %29, i32 0, i32 1
  %31 = load i32, ptr %30, align 4
  store i32 %31, ptr %4, align 4
  %32 = load i32, ptr %4, align 4
  %33 = and i32 %32, 1008
  %34 = and i32 %33, 64
  %35 = icmp ne i32 %34, 0
  %36 = select i1 %35, i32 6, i32 262
  %37 = load ptr, ptr %10, align 8
  %38 = getelementptr inbounds %struct._zval_struct, ptr %37, i32 0, i32 1
  store i32 %36, ptr %38, align 8
  br label %39

39:                                               ; preds = %23
  %40 = load ptr, ptr %5, align 8
  %41 = getelementptr inbounds %struct._zval_struct, ptr %8, i32 0, i32 0
  %42 = load ptr, ptr %41, align 8
  %43 = load ptr, ptr @zend_known_strings, align 8
  %44 = getelementptr inbounds ptr, ptr %43, i64 25
  %45 = load ptr, ptr %44, align 8
  call void @zend_update_property_ex(ptr noundef %40, ptr noundef %42, ptr noundef %45, ptr noundef %9)
  br label %46

46:                                               ; preds = %39, %17
  %47 = load i64, ptr %7, align 8
  %48 = icmp ne i64 %47, 0
  br i1 %48, label %49, label %63

49:                                               ; preds = %46
  br label %50

50:                                               ; preds = %49
  store ptr %9, ptr %12, align 8
  %51 = load i64, ptr %7, align 8
  %52 = load ptr, ptr %12, align 8
  %53 = getelementptr inbounds %struct._zval_struct, ptr %52, i32 0, i32 0
  store i64 %51, ptr %53, align 8
  %54 = load ptr, ptr %12, align 8
  %55 = getelementptr inbounds %struct._zval_struct, ptr %54, i32 0, i32 1
  store i32 4, ptr %55, align 8
  br label %56

56:                                               ; preds = %50
  %57 = load ptr, ptr %5, align 8
  %58 = getelementptr inbounds %struct._zval_struct, ptr %8, i32 0, i32 0
  %59 = load ptr, ptr %58, align 8
  %60 = load ptr, ptr @zend_known_strings, align 8
  %61 = getelementptr inbounds ptr, ptr %60, i64 24
  %62 = load ptr, ptr %61, align 8
  call void @zend_update_property_ex(ptr noundef %57, ptr noundef %59, ptr noundef %62, ptr noundef %9)
  br label %63

63:                                               ; preds = %56, %46
  %64 = getelementptr inbounds %struct._zval_struct, ptr %8, i32 0, i32 0
  %65 = load ptr, ptr %64, align 8
  call void @zend_throw_exception_internal(ptr noundef %65)
  %66 = getelementptr inbounds %struct._zval_struct, ptr %8, i32 0, i32 0
  %67 = load ptr, ptr %66, align 8
  ret ptr %67
}