; Function Attrs: nounwind uwtable
define internal fastcc ptr @zend_throw_exception_zstr(ptr noundef %0, ptr noundef %1, i64 noundef %2) unnamed_addr #0 {
  %4 = alloca %struct._zval_struct, align 8
  %5 = alloca %struct._zval_struct, align 8
  %.not = icmp eq ptr %0, null
  %6 = load ptr, ptr @zend_ce_exception, align 8
  %spec.select = select i1 %.not, ptr %6, ptr %0
  %7 = call i32 @object_init_ex(ptr noundef nonnull %4, ptr noundef %spec.select) #15
  %.not17 = icmp eq ptr %1, null
  br i1 %.not17, label %18, label %8

8:                                                ; preds = %3
  store ptr %1, ptr %5, align 8
  %9 = getelementptr inbounds i8, ptr %1, i64 4
  %10 = load i32, ptr %9, align 4
  %11 = and i32 %10, 64
  %.not18 = icmp eq i32 %11, 0
  %12 = select i1 %.not18, i32 262, i32 6
  %13 = getelementptr inbounds i8, ptr %5, i64 8
  store i32 %12, ptr %13, align 8
  %14 = load ptr, ptr %4, align 8
  %15 = load ptr, ptr @zend_known_strings, align 8
  %16 = getelementptr inbounds i8, ptr %15, i64 200
  %17 = load ptr, ptr %16, align 8
  call void @zend_update_property_ex(ptr noundef %spec.select, ptr noundef %14, ptr noundef %17, ptr noundef nonnull %5) #15
  br label %18

18:                                               ; preds = %8, %3
  %.not19 = icmp eq i64 %2, 0
  br i1 %.not19, label %25, label %19

19:                                               ; preds = %18
  store i64 %2, ptr %5, align 8
  %20 = getelementptr inbounds i8, ptr %5, i64 8
  store i32 4, ptr %20, align 8
  %21 = load ptr, ptr %4, align 8
  %22 = load ptr, ptr @zend_known_strings, align 8
  %23 = getelementptr inbounds i8, ptr %22, i64 192
  %24 = load ptr, ptr %23, align 8
  call void @zend_update_property_ex(ptr noundef %spec.select, ptr noundef %21, ptr noundef %24, ptr noundef nonnull %5) #15
  br label %25

25:                                               ; preds = %19, %18
  %26 = load ptr, ptr %4, align 8
  call void @zend_throw_exception_internal(ptr noundef %26)
  %27 = load ptr, ptr %4, align 8
  ret ptr %27
}